target datalayout = "e-m:e-p270:32:32-p271:32:32-p272:64:64-i64:64-i128:128-f80:128-n8:16:32:64-S128"
target triple = "x86_64-pc-linux-gnu"

%struct.X509_pubkey_st = type { ptr, ptr, ptr, ptr, ptr, i8 }
%struct.X509_algor_st = type { ptr, ptr }

@.str = private unnamed_addr constant [34 x i8] c"../openssl/crypto/x509/x_pubkey.c\00", align 1
@.str.2 = private unnamed_addr constant [4 x i8] c"DER\00", align 1
@.str.3 = private unnamed_addr constant [21 x i8] c"SubjectPublicKeyInfo\00", align 1
@X509_PUBKEY_INTERNAL_it.local_it = internal constant { i8, [7 x i8], i64, ptr, i64, ptr, i64, ptr } { i8 1, [7 x i8] zeroinitializer, i64 16, ptr @X509_PUBKEY_INTERNAL_seq_tt, i64 2, ptr null, i64 48, ptr @.str.1 }, align 8
@__func__.x509_pubkey_ex_d2i_ex = private unnamed_addr constant [22 x i8] c"x509_pubkey_ex_d2i_ex\00", align 1

; Function Attrs: nounwind uwtable
define internal ptr @X509_PUBKEY_INTERNAL_it() #0 {
  ret ptr @X509_PUBKEY_INTERNAL_it.local_it
}

; Function Attrs: nounwind uwtable
define internal i32 @x509_pubkey_ex_populate(ptr noundef %0, ptr noundef %1) #0 {
  %3 = alloca ptr, align 8
  %4 = alloca ptr, align 8
  %5 = alloca ptr, align 8
  store ptr %0, ptr %3, align 8, !tbaa !31
  store ptr %1, ptr %4, align 8, !tbaa !33
  call void @llvm.lifetime.start.p0(i64 8, ptr %5) #5
  %6 = load ptr, ptr %3, align 8, !tbaa !31
  %7 = load ptr, ptr %6, align 8, !tbaa !35
  store ptr %7, ptr %5, align 8, !tbaa !14
  %8 = load ptr, ptr %5, align 8, !tbaa !14
  %9 = getelementptr inbounds nuw %struct.X509_pubkey_st, ptr %8, i32 0, i32 0
  %10 = load ptr, ptr %9, align 8, !tbaa !25
  %11 = icmp ne ptr %10, null
  br i1 %11, label %17, label %12

12:                                               ; preds = %2
  %13 = call ptr @X509_ALGOR_new()
  %14 = load ptr, ptr %5, align 8, !tbaa !14
  %15 = getelementptr inbounds nuw %struct.X509_pubkey_st, ptr %14, i32 0, i32 0
  store ptr %13, ptr %15, align 8, !tbaa !25
  %16 = icmp ne ptr %13, null
  br i1 %16, label %17, label %29

17:                                               ; preds = %12, %2
  %18 = load ptr, ptr %5, align 8, !tbaa !14
  %19 = getelementptr inbounds nuw %struct.X509_pubkey_st, ptr %18, i32 0, i32 1
  %20 = load ptr, ptr %19, align 8, !tbaa !26
  %21 = icmp ne ptr %20, null
  br i1 %21, label %27, label %22

22:                                               ; preds = %17
  %23 = call ptr @ASN1_BIT_STRING_new()
  %24 = load ptr, ptr %5, align 8, !tbaa !14
  %25 = getelementptr inbounds nuw %struct.X509_pubkey_st, ptr %24, i32 0, i32 1
  store ptr %23, ptr %25, align 8, !tbaa !26
  %26 = icmp ne ptr %23, null
  br label %27

27:                                               ; preds = %22, %17
  %28 = phi i1 [ true, %17 ], [ %26, %22 ]
  br label %29

29:                                               ; preds = %27, %12
  %30 = phi i1 [ false, %12 ], [ %28, %27 ]
  %31 = zext i1 %30 to i32
  call void @llvm.lifetime.end.p0(i64 8, ptr %5) #5
  ret i32 %31
}

; Function Attrs: nounwind uwtable
define internal i32 @x509_pubkey_ex_d2i_ex(ptr noundef %0, ptr noundef %1, i64 noundef %2, ptr noundef %3, i32 noundef %4, i32 noundef %5, i8 noundef signext %6, ptr noundef %7, ptr noundef %8, ptr noundef %9) #0 {
  %11 = alloca i32, align 4
  %12 = alloca ptr, align 8
  %13 = alloca ptr, align 8
  %14 = alloca i64, align 8
  %15 = alloca ptr, align 8
  %16 = alloca i32, align 4
  %17 = alloca i32, align 4
  %18 = alloca i8, align 1
  %19 = alloca ptr, align 8
  %20 = alloca ptr, align 8
  %21 = alloca ptr, align 8
  %22 = alloca ptr, align 8
  %23 = alloca i64, align 8
  %24 = alloca ptr, align 8
  %25 = alloca i32, align 4
  %26 = alloca ptr, align 8
  %27 = alloca ptr, align 8
  %28 = alloca i32, align 4
  %29 = alloca ptr, align 8
  %30 = alloca [50 x i8], align 16
  %31 = alloca i64, align 8
  store ptr %0, ptr %12, align 8, !tbaa !31
  store ptr %1, ptr %13, align 8, !tbaa !3
  store i64 %2, ptr %14, align 8, !tbaa !8
  store ptr %3, ptr %15, align 8, !tbaa !33
  store i32 %4, ptr %16, align 4, !tbaa !43
  store i32 %5, ptr %17, align 4, !tbaa !43
  store i8 %6, ptr %18, align 1, !tbaa !75
  store ptr %7, ptr %19, align 8, !tbaa !124
  store ptr %8, ptr %20, align 8, !tbaa !10
  store ptr %9, ptr %21, align 8, !tbaa !12
  call void @llvm.lifetime.start.p0(i64 8, ptr %22) #5
  %32 = load ptr, ptr %13, align 8, !tbaa !3
  %33 = load ptr, ptr %32, align 8, !tbaa !12
  store ptr %33, ptr %22, align 8, !tbaa !12
  call void @llvm.lifetime.start.p0(i64 8, ptr %23) #5
  call void @llvm.lifetime.start.p0(i64 8, ptr %24) #5
  call void @llvm.lifetime.start.p0(i64 4, ptr %25) #5
  call void @llvm.lifetime.start.p0(i64 8, ptr %26) #5
  store ptr null, ptr %26, align 8, !tbaa !126
  call void @llvm.lifetime.start.p0(i64 8, ptr %27) #5
  store ptr null, ptr %27, align 8, !tbaa !12
  %34 = load ptr, ptr %12, align 8, !tbaa !31
  %35 = load ptr, ptr %34, align 8, !tbaa !35
  %36 = icmp eq ptr %35, null
  br i1 %36, label %37, label %45

37:                                               ; preds = %10
  %38 = load ptr, ptr %12, align 8, !tbaa !31
  %39 = load ptr, ptr %15, align 8, !tbaa !33
  %40 = load ptr, ptr %20, align 8, !tbaa !10
  %41 = load ptr, ptr %21, align 8, !tbaa !12
  %42 = call i32 @x509_pubkey_ex_new_ex(ptr noundef %38, ptr noundef %39, ptr noundef %40, ptr noundef %41)
  %43 = icmp ne i32 %42, 0
  br i1 %43, label %45, label %44

44:                                               ; preds = %37
  store i32 0, ptr %11, align 4
  store i32 1, ptr %28, align 4
  br label %166

45:                                               ; preds = %37, %10
  %46 = load ptr, ptr %12, align 8, !tbaa !31
  %47 = call i32 @x509_pubkey_ex_populate(ptr noundef %46, ptr noundef null)
  %48 = icmp ne i32 %47, 0
  br i1 %48, label %50, label %49

49:                                               ; preds = %45
  call void @ERR_new()
  call void @ERR_set_debug(ptr noundef @.str, i32 noundef 146, ptr noundef @__func__.x509_pubkey_ex_d2i_ex)
  call void (i32, i32, ptr, ...) @ERR_set_error(i32 noundef 13, i32 noundef 524299, ptr noundef null)
  store i32 0, ptr %11, align 4
  store i32 1, ptr %28, align 4
  br label %166

50:                                               ; preds = %45
  %51 = load ptr, ptr %12, align 8, !tbaa !31
  %52 = load ptr, ptr %13, align 8, !tbaa !3
  %53 = load i64, ptr %14, align 8, !tbaa !8
  %54 = call ptr @X509_PUBKEY_INTERNAL_it()
  %55 = load i32, ptr %16, align 4, !tbaa !43
  %56 = load i32, ptr %17, align 4, !tbaa !43
  %57 = load i8, ptr %18, align 1, !tbaa !75
  %58 = load ptr, ptr %19, align 8, !tbaa !124
  %59 = call i32 @ASN1_item_ex_d2i(ptr noundef %51, ptr noundef %52, i64 noundef %53, ptr noundef %54, i32 noundef %55, i32 noundef %56, i8 noundef signext %57, ptr noundef %58)
  store i32 %59, ptr %25, align 4, !tbaa !43
  %60 = icmp sle i32 %59, 0
  br i1 %60, label %61, label %63

61:                                               ; preds = %50
  %62 = load i32, ptr %25, align 4, !tbaa !43
  store i32 %62, ptr %11, align 4
  store i32 1, ptr %28, align 4
  br label %166

63:                                               ; preds = %50
  %64 = load ptr, ptr %13, align 8, !tbaa !3
  %65 = load ptr, ptr %64, align 8, !tbaa !12
  %66 = load ptr, ptr %22, align 8, !tbaa !12
  %67 = ptrtoint ptr %65 to i64
  %68 = ptrtoint ptr %66 to i64
  %69 = sub i64 %67, %68
  store i64 %69, ptr %23, align 8, !tbaa !8
  %70 = load i64, ptr %23, align 8, !tbaa !8
  %71 = icmp ugt i64 %70, 0
  %72 = zext i1 %71 to i32
  %73 = icmp ne i32 %72, 0
  %74 = xor i1 %73, true
  %75 = xor i1 %74, true
  %76 = zext i1 %75 to i32
  %77 = sext i32 %76 to i64
  %78 = call i64 @llvm.expect.i64(i64 %77, i64 1)
  %79 = icmp ne i64 %78, 0
  br i1 %79, label %81, label %80

80:                                               ; preds = %63
  call void @ERR_new()
  call void @ERR_set_debug(ptr noundef @.str, i32 noundef 158, ptr noundef @__func__.x509_pubkey_ex_d2i_ex)
  call void (i32, i32, ptr, ...) @ERR_set_error(i32 noundef 13, i32 noundef 786691, ptr noundef null)
  store i32 0, ptr %11, align 4
  store i32 1, ptr %28, align 4
  br label %166

81:                                               ; preds = %63
  %82 = load ptr, ptr %12, align 8, !tbaa !31
  %83 = load ptr, ptr %82, align 8, !tbaa !35
  store ptr %83, ptr %24, align 8, !tbaa !14
  %84 = load ptr, ptr %24, align 8, !tbaa !14
  %85 = getelementptr inbounds nuw %struct.X509_pubkey_st, ptr %84, i32 0, i32 2
  %86 = load ptr, ptr %85, align 8, !tbaa !30
  call void @EVP_PKEY_free(ptr noundef %86)
  %87 = load ptr, ptr %24, align 8, !tbaa !14
  %88 = getelementptr inbounds nuw %struct.X509_pubkey_st, ptr %87, i32 0, i32 2
  store ptr null, ptr %88, align 8, !tbaa !30
  %89 = call i32 @ERR_set_mark()
  %90 = load ptr, ptr %24, align 8, !tbaa !14
  %91 = getelementptr inbounds nuw %struct.X509_pubkey_st, ptr %90, i32 0, i32 2
  %92 = load ptr, ptr %24, align 8, !tbaa !14
  %93 = call i32 @x509_pubkey_decode(ptr noundef %91, ptr noundef %92)
  store i32 %93, ptr %25, align 4, !tbaa !43
  %94 = icmp eq i32 %93, -1
  br i1 %94, label %95, label %97

95:                                               ; preds = %81
  %96 = call i32 @ERR_clear_last_mark()
  br label %162

97:                                               ; preds = %81
  %98 = load i32, ptr %25, align 4, !tbaa !43
  %99 = icmp sle i32 %98, 0
  br i1 %99, label %100, label %160

100:                                              ; preds = %97
  %101 = load ptr, ptr %24, align 8, !tbaa !14
  %102 = getelementptr inbounds nuw %struct.X509_pubkey_st, ptr %101, i32 0, i32 5
  %103 = load i8, ptr %102, align 8
  %104 = and i8 %103, 1
  %105 = zext i8 %104 to i32
  %106 = icmp ne i32 %105, 0
  br i1 %106, label %160, label %107

107:                                              ; preds = %100
  call void @llvm.lifetime.start.p0(i64 8, ptr %29) #5
  call void @llvm.lifetime.start.p0(i64 50, ptr %30) #5
  call void @llvm.lifetime.start.p0(i64 8, ptr %31) #5
  %108 = load i64, ptr %23, align 8, !tbaa !8
  store i64 %108, ptr %31, align 8, !tbaa !8
  %109 = load i32, ptr %17, align 4, !tbaa !43
  %110 = icmp ne i32 %109, 0
  br i1 %110, label %111, label %121

111:                                              ; preds = %107
  %112 = load ptr, ptr %22, align 8, !tbaa !12
  %113 = load i64, ptr %23, align 8, !tbaa !8
  %114 = call noalias ptr @CRYPTO_memdup(ptr noundef %112, i64 noundef %113, ptr noundef @.str, i32 noundef 194)
  store ptr %114, ptr %27, align 8, !tbaa !12
  %115 = load ptr, ptr %27, align 8, !tbaa !12
  %116 = icmp eq ptr %115, null
  br i1 %116, label %117, label %118

117:                                              ; preds = %111
  store i32 0, ptr %11, align 4
  store i32 1, ptr %28, align 4
  br label %157

118:                                              ; preds = %111
  %119 = load ptr, ptr %27, align 8, !tbaa !12
  store ptr %119, ptr %22, align 8, !tbaa !12
  %120 = load ptr, ptr %27, align 8, !tbaa !12
  store i8 48, ptr %120, align 1, !tbaa !75
  br label %121

121:                                              ; preds = %118, %107
  %122 = load ptr, ptr %22, align 8, !tbaa !12
  store ptr %122, ptr %29, align 8, !tbaa !12
  %123 = getelementptr inbounds [50 x i8], ptr %30, i64 0, i64 0
  %124 = load ptr, ptr %24, align 8, !tbaa !14
  %125 = getelementptr inbounds nuw %struct.X509_pubkey_st, ptr %124, i32 0, i32 0
  %126 = load ptr, ptr %125, align 8, !tbaa !25
  %127 = getelementptr inbounds nuw %struct.X509_algor_st, ptr %126, i32 0, i32 0
  %128 = load ptr, ptr %127, align 8, !tbaa !39
  %129 = call i32 @OBJ_obj2txt(ptr noundef %123, i32 noundef 50, ptr noundef %128, i32 noundef 0)
  %130 = icmp sle i32 %129, 0
  br i1 %130, label %131, label %133

131:                                              ; preds = %121
  %132 = call i32 @ERR_clear_last_mark()
  store i32 2, ptr %28, align 4
  br label %157

133:                                              ; preds = %121
  %134 = load ptr, ptr %24, align 8, !tbaa !14
  %135 = getelementptr inbounds nuw %struct.X509_pubkey_st, ptr %134, i32 0, i32 2
  %136 = getelementptr inbounds [50 x i8], ptr %30, i64 0, i64 0
  %137 = load ptr, ptr %24, align 8, !tbaa !14
  %138 = getelementptr inbounds nuw %struct.X509_pubkey_st, ptr %137, i32 0, i32 3
  %139 = load ptr, ptr %138, align 8, !tbaa !18
  %140 = load ptr, ptr %24, align 8, !tbaa !14
  %141 = getelementptr inbounds nuw %struct.X509_pubkey_st, ptr %140, i32 0, i32 4
  %142 = load ptr, ptr %141, align 8, !tbaa !24
  %143 = call ptr @OSSL_DECODER_CTX_new_for_pkey(ptr noundef %135, ptr noundef @.str.2, ptr noundef @.str.3, ptr noundef %136, i32 noundef 134, ptr noundef %139, ptr noundef %142)
  store ptr %143, ptr %26, align 8, !tbaa !126
  %144 = icmp ne ptr %143, null
  br i1 %144, label %145, label %156

145:                                              ; preds = %133
  %146 = load ptr, ptr %26, align 8, !tbaa !126
  %147 = call i32 @OSSL_DECODER_from_data(ptr noundef %146, ptr noundef %29, ptr noundef %31)
  %148 = icmp ne i32 %147, 0
  br i1 %148, label %149, label %155

149:                                              ; preds = %145
  %150 = load i64, ptr %31, align 8, !tbaa !8
  %151 = icmp ne i64 %150, 0
  br i1 %151, label %152, label %154

152:                                              ; preds = %149
  %153 = call i32 @ERR_clear_last_mark()
  call void @ERR_new()
  call void @ERR_set_debug(ptr noundef @.str, i32 noundef 224, ptr noundef @__func__.x509_pubkey_ex_d2i_ex)
  call void (i32, i32, ptr, ...) @ERR_set_error(i32 noundef 13, i32 noundef 114, ptr noundef null)
  store i32 2, ptr %28, align 4
  br label %157

154:                                              ; preds = %149
  br label %155

155:                                              ; preds = %154, %145
  br label %156

156:                                              ; preds = %155, %133
  store i32 0, ptr %28, align 4
  br label %157

157:                                              ; preds = %152, %131, %156, %117
  call void @llvm.lifetime.end.p0(i64 8, ptr %31) #5
  call void @llvm.lifetime.end.p0(i64 50, ptr %30) #5
  call void @llvm.lifetime.end.p0(i64 8, ptr %29) #5
  %158 = load i32, ptr %28, align 4
  switch i32 %158, label %166 [
    i32 0, label %159
    i32 2, label %162
  ]

159:                                              ; preds = %157
  br label %160

160:                                              ; preds = %159, %100, %97
  %161 = call i32 @ERR_pop_to_mark()
  store i32 1, ptr %25, align 4, !tbaa !43
  br label %162

162:                                              ; preds = %160, %157, %95
  %163 = load ptr, ptr %26, align 8, !tbaa !126
  call void @OSSL_DECODER_CTX_free(ptr noundef %163)
  %164 = load ptr, ptr %27, align 8, !tbaa !12
  call void @CRYPTO_free(ptr noundef %164, ptr noundef @.str, i32 noundef 234)
  %165 = load i32, ptr %25, align 4, !tbaa !43
  store i32 %165, ptr %11, align 4
  store i32 1, ptr %28, align 4
  br label %166

166:                                              ; preds = %162, %157, %80, %61, %49, %44
  call void @llvm.lifetime.end.p0(i64 8, ptr %27) #5
  call void @llvm.lifetime.end.p0(i64 8, ptr %26) #5
  call void @llvm.lifetime.end.p0(i64 4, ptr %25) #5
  call void @llvm.lifetime.end.p0(i64 8, ptr %24) #5
  call void @llvm.lifetime.end.p0(i64 8, ptr %23) #5
  call void @llvm.lifetime.end.p0(i64 8, ptr %22) #5
  %167 = load i32, ptr %11, align 4
  ret i32 %167
}