; Function Attrs: nounwind uwtable
define internal range(i32 -2147483648, 2) i32 @x509_pubkey_ex_d2i_ex(ptr noundef %0, ptr noundef %1, i64 noundef %2, ptr readnone captures(none) %3, i32 noundef %4, i32 noundef %5, i8 noundef signext %6, ptr noundef %7, ptr noundef %8, ptr noundef %9) #0 {
  %11 = alloca ptr, align 8
  %12 = alloca [50 x i8], align 16
  %13 = alloca i64, align 8
  %14 = load ptr, ptr %1, align 8, !tbaa !46
  %15 = load ptr, ptr %0, align 8, !tbaa !24
  %16 = icmp eq ptr %15, null
  br i1 %16, label %17, label %19

17:                                               ; preds = %10
  %18 = tail call i32 @x509_pubkey_ex_new_ex(ptr noundef nonnull %0, ptr poison, ptr noundef %8, ptr noundef %9)
  %.not = icmp eq i32 %18, 0
  br i1 %.not, label %76, label %._crit_edge

._crit_edge:                                      ; preds = %17
  %.val.pre = load ptr, ptr %0, align 8, !tbaa !24
  br label %19

19:                                               ; preds = %._crit_edge, %10
  %.val = phi ptr [ %.val.pre, %._crit_edge ], [ %15, %10 ]
  %20 = load ptr, ptr %.val, align 8, !tbaa !17
  %.not.i = icmp eq ptr %20, null
  br i1 %.not.i, label %21, label %23

21:                                               ; preds = %19
  %22 = tail call ptr @X509_ALGOR_new() #9
  store ptr %22, ptr %.val, align 8, !tbaa !17
  %.not5.i = icmp eq ptr %22, null
  br i1 %.not5.i, label %x509_pubkey_ex_populate.exit.thread, label %23

23:                                               ; preds = %21, %19
  %24 = getelementptr inbounds nuw i8, ptr %.val, i64 8
  %25 = load ptr, ptr %24, align 8, !tbaa !18
  %.not6.i = icmp eq ptr %25, null
  br i1 %.not6.i, label %x509_pubkey_ex_populate.exit, label %x509_pubkey_ex_populate.exit.thread64

x509_pubkey_ex_populate.exit:                     ; preds = %23
  %26 = tail call ptr @ASN1_BIT_STRING_new() #9
  store ptr %26, ptr %24, align 8, !tbaa !18
  %.not74 = icmp eq ptr %26, null
  br i1 %.not74, label %x509_pubkey_ex_populate.exit.thread, label %x509_pubkey_ex_populate.exit.thread64

x509_pubkey_ex_populate.exit.thread:              ; preds = %21, %x509_pubkey_ex_populate.exit
  tail call void @ERR_new() #9
  tail call void @ERR_set_debug(ptr noundef nonnull @.str, i32 noundef 146, ptr noundef nonnull @__func__.x509_pubkey_ex_d2i_ex) #9
  tail call void (i32, i32, ptr, ...) @ERR_set_error(i32 noundef 13, i32 noundef 524299, ptr noundef null) #9
  br label %76

x509_pubkey_ex_populate.exit.thread64:            ; preds = %23, %x509_pubkey_ex_populate.exit
  %27 = tail call i32 @ASN1_item_ex_d2i(ptr noundef nonnull %0, ptr noundef nonnull %1, i64 noundef %2, ptr noundef nonnull @X509_PUBKEY_INTERNAL_it.local_it, i32 noundef %4, i32 noundef %5, i8 noundef signext %6, ptr noundef %7) #9
  %28 = icmp slt i32 %27, 1
  br i1 %28, label %76, label %29

29:                                               ; preds = %x509_pubkey_ex_populate.exit.thread64
  %30 = load ptr, ptr %1, align 8, !tbaa !46
  %31 = ptrtoint ptr %30 to i64
  %32 = ptrtoint ptr %14 to i64
  %33 = sub i64 %31, %32
  %.not59 = icmp eq ptr %30, %14
  br i1 %.not59, label %34, label %35, !prof !86

34:                                               ; preds = %29
  tail call void @ERR_new() #9
  tail call void @ERR_set_debug(ptr noundef nonnull @.str, i32 noundef 158, ptr noundef nonnull @__func__.x509_pubkey_ex_d2i_ex) #9
  tail call void (i32, i32, ptr, ...) @ERR_set_error(i32 noundef 13, i32 noundef 786691, ptr noundef null) #9
  br label %76

35:                                               ; preds = %29
  %36 = load ptr, ptr %0, align 8, !tbaa !24
  %37 = getelementptr inbounds nuw i8, ptr %36, i64 16
  %38 = load ptr, ptr %37, align 8, !tbaa !19
  tail call void @EVP_PKEY_free(ptr noundef %38) #9
  store ptr null, ptr %37, align 8, !tbaa !19
  %39 = tail call i32 @ERR_set_mark() #9
  %40 = tail call fastcc i32 @x509_pubkey_decode(ptr noundef nonnull %37, ptr noundef %36)
  switch i32 %40, label %73 [
    i32 -1, label %41
    i32 0, label %43
  ]

41:                                               ; preds = %35
  %42 = tail call i32 @ERR_clear_last_mark() #9
  br label %75

43:                                               ; preds = %35
  %44 = getelementptr inbounds nuw i8, ptr %36, i64 40
  %45 = load i8, ptr %44, align 8
  %46 = and i8 %45, 1
  %.not60 = icmp eq i8 %46, 0
  br i1 %.not60, label %47, label %73

47:                                               ; preds = %43
  call void @llvm.lifetime.start.p0(i64 8, ptr nonnull %11) #9
  call void @llvm.lifetime.start.p0(i64 50, ptr nonnull %12) #9
  call void @llvm.lifetime.start.p0(i64 8, ptr nonnull %13) #9
  store i64 %33, ptr %13, align 8, !tbaa !47
  %.not61 = icmp eq i32 %5, 0
  br i1 %.not61, label %52, label %48

48:                                               ; preds = %47
  %49 = tail call noalias ptr @CRYPTO_memdup(ptr noundef %14, i64 noundef %33, ptr noundef nonnull @.str, i32 noundef 194) #9
  %50 = icmp eq ptr %49, null
  br i1 %50, label %72, label %51

51:                                               ; preds = %48
  store i8 48, ptr %49, align 1, !tbaa !55
  br label %52

52:                                               ; preds = %51, %47
  %.050 = phi ptr [ %49, %51 ], [ %14, %47 ]
  %.2 = phi ptr [ %49, %51 ], [ null, %47 ]
  store ptr %.050, ptr %11, align 8, !tbaa !46
  %53 = load ptr, ptr %36, align 8, !tbaa !17
  %54 = load ptr, ptr %53, align 8, !tbaa !26
  %55 = call i32 @OBJ_obj2txt(ptr noundef nonnull %12, i32 noundef 50, ptr noundef %54, i32 noundef 0) #9
  %56 = icmp slt i32 %55, 1
  br i1 %56, label %57, label %59

57:                                               ; preds = %52
  %58 = call i32 @ERR_clear_last_mark() #9
  br label %.thread70

59:                                               ; preds = %52
  %60 = getelementptr inbounds nuw i8, ptr %36, i64 24
  %61 = load ptr, ptr %60, align 8, !tbaa !8
  %62 = getelementptr inbounds nuw i8, ptr %36, i64 32
  %63 = load ptr, ptr %62, align 8, !tbaa !16
  %64 = call ptr @OSSL_DECODER_CTX_new_for_pkey(ptr noundef nonnull %37, ptr noundef nonnull @.str.2, ptr noundef nonnull @.str.3, ptr noundef nonnull %12, i32 noundef 134, ptr noundef %61, ptr noundef %63) #9
  %.not62 = icmp eq ptr %64, null
  br i1 %.not62, label %.thread, label %65

65:                                               ; preds = %59
  %66 = call i32 @OSSL_DECODER_from_data(ptr noundef nonnull %64, ptr noundef nonnull %11, ptr noundef nonnull %13) #9
  %67 = icmp ne i32 %66, 0
  %68 = load i64, ptr %13, align 8
  %69 = icmp ne i64 %68, 0
  %or.cond = select i1 %67, i1 %69, i1 false
  br i1 %or.cond, label %70, label %.thread

70:                                               ; preds = %65
  %71 = call i32 @ERR_clear_last_mark() #9
  call void @ERR_new() #9
  call void @ERR_set_debug(ptr noundef nonnull @.str, i32 noundef 224, ptr noundef nonnull @__func__.x509_pubkey_ex_d2i_ex) #9
  call void (i32, i32, ptr, ...) @ERR_set_error(i32 noundef 13, i32 noundef 114, ptr noundef null) #9
  br label %.thread70

.thread:                                          ; preds = %65, %59
  call void @llvm.lifetime.end.p0(i64 8, ptr nonnull %13) #9
  call void @llvm.lifetime.end.p0(i64 50, ptr nonnull %12) #9
  call void @llvm.lifetime.end.p0(i64 8, ptr nonnull %11) #9
  br label %73

.thread70:                                        ; preds = %57, %70
  %.246.ph = phi ptr [ %64, %70 ], [ null, %57 ]
  call void @llvm.lifetime.end.p0(i64 8, ptr nonnull %13) #9
  call void @llvm.lifetime.end.p0(i64 50, ptr nonnull %12) #9
  call void @llvm.lifetime.end.p0(i64 8, ptr nonnull %11) #9
  br label %75

72:                                               ; preds = %48
  call void @llvm.lifetime.end.p0(i64 8, ptr nonnull %13) #9
  call void @llvm.lifetime.end.p0(i64 50, ptr nonnull %12) #9
  call void @llvm.lifetime.end.p0(i64 8, ptr nonnull %11) #9
  br label %76

73:                                               ; preds = %35, %.thread, %43
  %.145 = phi ptr [ null, %43 ], [ %64, %.thread ], [ null, %35 ]
  %.1 = phi ptr [ null, %43 ], [ %.2, %.thread ], [ null, %35 ]
  %74 = call i32 @ERR_pop_to_mark() #9
  br label %75

75:                                               ; preds = %.thread70, %73, %41
  %.047 = phi i32 [ -1, %41 ], [ 1, %73 ], [ 0, %.thread70 ]
  %.044 = phi ptr [ null, %41 ], [ %.145, %73 ], [ %.246.ph, %.thread70 ]
  %.043 = phi ptr [ null, %41 ], [ %.1, %73 ], [ %.2, %.thread70 ]
  call void @OSSL_DECODER_CTX_free(ptr noundef %.044) #9
  call void @CRYPTO_free(ptr noundef %.043, ptr noundef nonnull @.str, i32 noundef 234) #9
  br label %76

76:                                               ; preds = %72, %x509_pubkey_ex_populate.exit.thread64, %17, %75, %34, %x509_pubkey_ex_populate.exit.thread
  %.048 = phi i32 [ %.047, %75 ], [ 0, %72 ], [ 0, %34 ], [ 0, %x509_pubkey_ex_populate.exit.thread ], [ 0, %17 ], [ %27, %x509_pubkey_ex_populate.exit.thread64 ]
  ret i32 %.048
}